	.section	__TEXT,__text,regular,pure_instructions
	.build_version macos, 14, 0	sdk_version 14, 4
	.globl	__Z9to_stringRKNSt3__112basic_stringIcNS_11char_traitsIcEENS_9allocatorIcEEEE ; -- Begin function _Z9to_stringRKNSt3__112basic_stringIcNS_11char_traitsIcEENS_9allocatorIcEEEE
	.p2align	2
__Z9to_stringRKNSt3__112basic_stringIcNS_11char_traitsIcEENS_9allocatorIcEEEE: ; @_Z9to_stringRKNSt3__112basic_stringIcNS_11char_traitsIcEENS_9allocatorIcEEEE
Lfunc_begin0:
	.cfi_startproc
	.cfi_personality 155, ___gxx_personality_v0
	.cfi_lsda 16, Lexception0
; %bb.0:
	sub	sp, sp, #112
	.cfi_def_cfa_offset 112
	stp	x26, x25, [sp, #32]             ; 16-byte Folded Spill
	stp	x24, x23, [sp, #48]             ; 16-byte Folded Spill
	stp	x22, x21, [sp, #64]             ; 16-byte Folded Spill
	stp	x20, x19, [sp, #80]             ; 16-byte Folded Spill
	stp	x29, x30, [sp, #96]             ; 16-byte Folded Spill
	add	x29, sp, #96
	.cfi_def_cfa w29, 16
	.cfi_offset w30, -8
	.cfi_offset w29, -16
	.cfi_offset w19, -24
	.cfi_offset w20, -32
	.cfi_offset w21, -40
	.cfi_offset w22, -48
	.cfi_offset w23, -56
	.cfi_offset w24, -64
	.cfi_offset w25, -72
	.cfi_offset w26, -80
	mov	x19, x8
	ldrb	w8, [x0, #23]
	sxtb	w24, w8
	ldr	x9, [x0, #8]
	cmp	w24, #0
	csel	x20, x9, x8, lt
	add	x25, x20, #1
	mov	x8, #9223372036854775792
	cmp	x25, x8
	b.hs	LBB0_7
; %bb.1:
	mov	x21, x0
	cmp	x25, #23
	b.hs	LBB0_3
; %bb.2:
	stp	xzr, xzr, [sp, #16]
	str	xzr, [sp, #8]
	strb	w25, [sp, #31]
	mov	w8, #34
	add	x9, sp, #8
	orr	x22, x9, #0x1
	strb	w8, [sp, #8]
	cbnz	x20, LBB0_4
	b	LBB0_5
LBB0_3:
	orr	x8, x25, #0xf
	add	x23, x8, #1
	mov	x0, x23
	bl	__Znwm
	mov	x22, x0
	orr	x8, x23, #0x8000000000000000
	stp	x25, x8, [sp, #16]
	str	x0, [sp, #8]
	mov	w8, #34
	strb	w8, [x22], #1
LBB0_4:
	ldr	x8, [x21]
	cmp	w24, #0
	csel	x1, x8, x21, lt
	mov	x0, x22
	mov	x2, x20
	bl	_memmove
LBB0_5:
	strb	wzr, [x22, x20]
Ltmp0:
	add	x0, sp, #8
	mov	w1, #34
	bl	__ZNSt3__112basic_stringIcNS_11char_traitsIcEENS_9allocatorIcEEE9push_backEc
Ltmp1:
; %bb.6:
	ldur	q0, [sp, #8]
	str	q0, [x19]
	ldr	x8, [sp, #24]
	str	x8, [x19, #16]
	ldp	x29, x30, [sp, #96]             ; 16-byte Folded Reload
	ldp	x20, x19, [sp, #80]             ; 16-byte Folded Reload
	ldp	x22, x21, [sp, #64]             ; 16-byte Folded Reload
	ldp	x24, x23, [sp, #48]             ; 16-byte Folded Reload
	ldp	x26, x25, [sp, #32]             ; 16-byte Folded Reload
	add	sp, sp, #112
	ret
LBB0_7:
	add	x0, sp, #8
	bl	__ZNKSt3__112basic_stringIcNS_11char_traitsIcEENS_9allocatorIcEEE20__throw_length_errorB8ue170006Ev
LBB0_8:
Ltmp2:
	mov	x19, x0
	ldrsb	w8, [sp, #31]
	tbz	w8, #31, LBB0_10
; %bb.9:
	ldr	x0, [sp, #8]
	bl	__ZdlPv
LBB0_10:
	mov	x0, x19
	bl	__Unwind_Resume
Lfunc_end0:
	.cfi_endproc
	.section	__TEXT,__gcc_except_tab
	.p2align	2, 0x0
GCC_except_table0:
Lexception0:
	.byte	255                             ; @LPStart Encoding = omit
	.byte	255                             ; @TType Encoding = omit
	.byte	1                               ; Call site Encoding = uleb128
	.uleb128 Lcst_end0-Lcst_begin0
Lcst_begin0:
	.uleb128 Lfunc_begin0-Lfunc_begin0      ; >> Call Site 1 <<
	.uleb128 Ltmp0-Lfunc_begin0             ;   Call between Lfunc_begin0 and Ltmp0
	.byte	0                               ;     has no landing pad
	.byte	0                               ;   On action: cleanup
	.uleb128 Ltmp0-Lfunc_begin0             ; >> Call Site 2 <<
	.uleb128 Ltmp1-Ltmp0                    ;   Call between Ltmp0 and Ltmp1
	.uleb128 Ltmp2-Lfunc_begin0             ;     jumps to Ltmp2
	.byte	0                               ;   On action: cleanup
	.uleb128 Ltmp1-Lfunc_begin0             ; >> Call Site 3 <<
	.uleb128 Lfunc_end0-Ltmp1               ;   Call between Ltmp1 and Lfunc_end0
	.byte	0                               ;     has no landing pad
	.byte	0                               ;   On action: cleanup
Lcst_end0:
	.p2align	2, 0x0
                                        ; -- End function
	.section	__TEXT,__text,regular,pure_instructions
	.globl	__Z9to_stringPKc                ; -- Begin function _Z9to_stringPKc
	.p2align	2
__Z9to_stringPKc:                       ; @_Z9to_stringPKc
Lfunc_begin1:
	.cfi_startproc
	.cfi_personality 155, ___gxx_personality_v0
	.cfi_lsda 16, Lexception1
; %bb.0:
	sub	sp, sp, #96
	.cfi_def_cfa_offset 96
	stp	x24, x23, [sp, #32]             ; 16-byte Folded Spill
	stp	x22, x21, [sp, #48]             ; 16-byte Folded Spill
	stp	x20, x19, [sp, #64]             ; 16-byte Folded Spill
	stp	x29, x30, [sp, #80]             ; 16-byte Folded Spill
	add	x29, sp, #80
	.cfi_def_cfa w29, 16
	.cfi_offset w30, -8
	.cfi_offset w29, -16
	.cfi_offset w19, -24
	.cfi_offset w20, -32
	.cfi_offset w21, -40
	.cfi_offset w22, -48
	.cfi_offset w23, -56
	.cfi_offset w24, -64
	mov	x21, x0
	mov	x19, x8
	bl	_strlen
	mov	x8, #9223372036854775792
	cmp	x0, x8
	b.hs	LBB1_9
; %bb.1:
	mov	x20, x0
	cmp	x0, #23
	b.hs	LBB1_3
; %bb.2:
	strb	w20, [sp, #31]
	add	x22, sp, #8
	cbnz	x20, LBB1_4
	b	LBB1_5
LBB1_3:
	orr	x8, x20, #0xf
	add	x23, x8, #1
	mov	x0, x23
	bl	__Znwm
	mov	x22, x0
	orr	x8, x23, #0x8000000000000000
	stp	x20, x8, [sp, #16]
	str	x0, [sp, #8]
LBB1_4:
	mov	x0, x22
	mov	x1, x21
	mov	x2, x20
	bl	_memcpy
LBB1_5:
	strb	wzr, [x22, x20]
Ltmp3:
	add	x0, sp, #8
	mov	x8, x19
	bl	__Z9to_stringRKNSt3__112basic_stringIcNS_11char_traitsIcEENS_9allocatorIcEEEE
Ltmp4:
; %bb.6:
	ldrsb	w8, [sp, #31]
	tbnz	w8, #31, LBB1_8
; %bb.7:
	ldp	x29, x30, [sp, #80]             ; 16-byte Folded Reload
	ldp	x20, x19, [sp, #64]             ; 16-byte Folded Reload
	ldp	x22, x21, [sp, #48]             ; 16-byte Folded Reload
	ldp	x24, x23, [sp, #32]             ; 16-byte Folded Reload
	add	sp, sp, #96
	ret
LBB1_8:
	ldr	x0, [sp, #8]
	ldp	x29, x30, [sp, #80]             ; 16-byte Folded Reload
	ldp	x20, x19, [sp, #64]             ; 16-byte Folded Reload
	ldp	x22, x21, [sp, #48]             ; 16-byte Folded Reload
	ldp	x24, x23, [sp, #32]             ; 16-byte Folded Reload
	add	sp, sp, #96
	b	__ZdlPv
LBB1_9:
	add	x0, sp, #8
	bl	__ZNKSt3__112basic_stringIcNS_11char_traitsIcEENS_9allocatorIcEEE20__throw_length_errorB8ue170006Ev
LBB1_10:
Ltmp5:
	mov	x19, x0
	ldrsb	w8, [sp, #31]
	tbz	w8, #31, LBB1_12
; %bb.11:
	ldr	x0, [sp, #8]
	bl	__ZdlPv
LBB1_12:
	mov	x0, x19
	bl	__Unwind_Resume
Lfunc_end1:
	.cfi_endproc
	.section	__TEXT,__gcc_except_tab
	.p2align	2, 0x0
GCC_except_table1:
Lexception1:
	.byte	255                             ; @LPStart Encoding = omit
	.byte	255                             ; @TType Encoding = omit
	.byte	1                               ; Call site Encoding = uleb128
	.uleb128 Lcst_end1-Lcst_begin1
Lcst_begin1:
	.uleb128 Lfunc_begin1-Lfunc_begin1      ; >> Call Site 1 <<
	.uleb128 Ltmp3-Lfunc_begin1             ;   Call between Lfunc_begin1 and Ltmp3
	.byte	0                               ;     has no landing pad
	.byte	0                               ;   On action: cleanup
	.uleb128 Ltmp3-Lfunc_begin1             ; >> Call Site 2 <<
	.uleb128 Ltmp4-Ltmp3                    ;   Call between Ltmp3 and Ltmp4
	.uleb128 Ltmp5-Lfunc_begin1             ;     jumps to Ltmp5
	.byte	0                               ;   On action: cleanup
	.uleb128 Ltmp4-Lfunc_begin1             ; >> Call Site 3 <<
	.uleb128 Lfunc_end1-Ltmp4               ;   Call between Ltmp4 and Lfunc_end1
	.byte	0                               ;     has no landing pad
	.byte	0                               ;   On action: cleanup
Lcst_end1:
	.p2align	2, 0x0
                                        ; -- End function
	.section	__TEXT,__text,regular,pure_instructions
	.globl	__Z9to_stringc                  ; -- Begin function _Z9to_stringc
	.p2align	2
__Z9to_stringc:                         ; @_Z9to_stringc
Lfunc_begin2:
	.cfi_startproc
	.cfi_personality 155, ___gxx_personality_v0
	.cfi_lsda 16, Lexception2
; %bb.0:
	sub	sp, sp, #96
	.cfi_def_cfa_offset 96
	stp	x20, x19, [sp, #64]             ; 16-byte Folded Spill
	stp	x29, x30, [sp, #80]             ; 16-byte Folded Spill
	add	x29, sp, #80
	.cfi_def_cfa w29, 16
	.cfi_offset w30, -8
	.cfi_offset w29, -16
	.cfi_offset w19, -24
	.cfi_offset w20, -32
	mov	x19, x8
	mov	w8, #1
	strb	w8, [sp, #31]
	strb	w0, [sp, #8]
	strb	wzr, [sp, #9]
Ltmp6:
Lloh0:
	adrp	x2, l_.str@PAGE
Lloh1:
	add	x2, x2, l_.str@PAGEOFF
	add	x0, sp, #8
	mov	x1, #0
	mov	w3, #1
	bl	__ZNSt3__112basic_stringIcNS_11char_traitsIcEENS_9allocatorIcEEE6insertEmPKcm
Ltmp7:
; %bb.1:
	ldr	q0, [x0]
	ldr	x8, [x0, #16]
	str	x8, [sp, #48]
	str	q0, [sp, #32]
	stp	xzr, xzr, [x0, #8]
	str	xzr, [x0]
Ltmp9:
Lloh2:
	adrp	x1, l_.str@PAGE
Lloh3:
	add	x1, x1, l_.str@PAGEOFF
	add	x0, sp, #32
	mov	w2, #1
	bl	__ZNSt3__112basic_stringIcNS_11char_traitsIcEENS_9allocatorIcEEE6appendEPKcm
Ltmp10:
; %bb.2:
	ldr	q0, [x0]
	str	q0, [x19]
	ldr	x8, [x0, #16]
	str	x8, [x19, #16]
	stp	xzr, xzr, [x0, #8]
	str	xzr, [x0]
	ldrsb	w8, [sp, #55]
	tbnz	w8, #31, LBB2_5
; %bb.3:
	ldrsb	w8, [sp, #31]
	tbnz	w8, #31, LBB2_6
LBB2_4:
	ldp	x29, x30, [sp, #80]             ; 16-byte Folded Reload
	ldp	x20, x19, [sp, #64]             ; 16-byte Folded Reload
	add	sp, sp, #96
	ret
LBB2_5:
	ldr	x0, [sp, #32]
	bl	__ZdlPv
	ldrsb	w8, [sp, #31]
	tbz	w8, #31, LBB2_4
LBB2_6:
	ldr	x0, [sp, #8]
	bl	__ZdlPv
	ldp	x29, x30, [sp, #80]             ; 16-byte Folded Reload
	ldp	x20, x19, [sp, #64]             ; 16-byte Folded Reload
	add	sp, sp, #96
	ret
LBB2_7:
Ltmp11:
	mov	x19, x0
	ldrsb	w8, [sp, #55]
	tbnz	w8, #31, LBB2_10
; %bb.8:
	ldrsb	w8, [sp, #31]
	tbnz	w8, #31, LBB2_12
LBB2_9:
	mov	x0, x19
	bl	__Unwind_Resume
LBB2_10:
	ldr	x0, [sp, #32]
	bl	__ZdlPv
	ldrsb	w8, [sp, #31]
	tbz	w8, #31, LBB2_9
	b	LBB2_12
LBB2_11:
Ltmp8:
	mov	x19, x0
	ldrsb	w8, [sp, #31]
	tbz	w8, #31, LBB2_9
LBB2_12:
	ldr	x0, [sp, #8]
	bl	__ZdlPv
	mov	x0, x19
	bl	__Unwind_Resume
	.loh AdrpAdd	Lloh0, Lloh1
	.loh AdrpAdd	Lloh2, Lloh3
Lfunc_end2:
	.cfi_endproc
	.section	__TEXT,__gcc_except_tab
	.p2align	2, 0x0
GCC_except_table2:
Lexception2:
	.byte	255                             ; @LPStart Encoding = omit
	.byte	255                             ; @TType Encoding = omit
	.byte	1                               ; Call site Encoding = uleb128
	.uleb128 Lcst_end2-Lcst_begin2
Lcst_begin2:
	.uleb128 Ltmp6-Lfunc_begin2             ; >> Call Site 1 <<
	.uleb128 Ltmp7-Ltmp6                    ;   Call between Ltmp6 and Ltmp7
	.uleb128 Ltmp8-Lfunc_begin2             ;     jumps to Ltmp8
	.byte	0                               ;   On action: cleanup
	.uleb128 Ltmp9-Lfunc_begin2             ; >> Call Site 2 <<
	.uleb128 Ltmp10-Ltmp9                   ;   Call between Ltmp9 and Ltmp10
	.uleb128 Ltmp11-Lfunc_begin2            ;     jumps to Ltmp11
	.byte	0                               ;   On action: cleanup
	.uleb128 Ltmp10-Lfunc_begin2            ; >> Call Site 3 <<
	.uleb128 Lfunc_end2-Ltmp10              ;   Call between Ltmp10 and Lfunc_end2
	.byte	0                               ;     has no landing pad
	.byte	0                               ;   On action: cleanup
Lcst_end2:
	.p2align	2, 0x0
                                        ; -- End function
	.section	__TEXT,__text,regular,pure_instructions
	.globl	__Z9to_stringb                  ; -- Begin function _Z9to_stringb
	.p2align	2
__Z9to_stringb:                         ; @_Z9to_stringb
	.cfi_startproc
; %bb.0:
	stp	x20, x19, [sp, #-32]!           ; 16-byte Folded Spill
	.cfi_def_cfa_offset 32
	stp	x29, x30, [sp, #16]             ; 16-byte Folded Spill
	add	x29, sp, #16
	.cfi_def_cfa w29, 16
	.cfi_offset w30, -8
	.cfi_offset w29, -16
	.cfi_offset w19, -24
	.cfi_offset w20, -32
	mov	x19, x8
Lloh4:
	adrp	x8, l_.str.2@PAGE
Lloh5:
	add	x8, x8, l_.str.2@PAGEOFF
Lloh6:
	adrp	x9, l_.str.1@PAGE
Lloh7:
	add	x9, x9, l_.str.1@PAGEOFF
	cmp	w0, #0
	csel	x1, x9, x8, ne
	mov	w8, #4
	cinc	x20, x8, eq
	strb	w20, [x19, #23]
	mov	x0, x19
	mov	x2, x20
	bl	_memcpy
	strb	wzr, [x19, x20]
	ldp	x29, x30, [sp, #16]             ; 16-byte Folded Reload
	ldp	x20, x19, [sp], #32             ; 16-byte Folded Reload
	ret
	.loh AdrpAdd	Lloh6, Lloh7
	.loh AdrpAdd	Lloh4, Lloh5
	.cfi_endproc
                                        ; -- End function
	.globl	__Z9debug_outv                  ; -- Begin function _Z9debug_outv
	.p2align	2
__Z9debug_outv:                         ; @_Z9debug_outv
Lfunc_begin3:
	.cfi_startproc
	.cfi_personality 155, ___gxx_personality_v0
	.cfi_lsda 16, Lexception3
; %bb.0:
	sub	sp, sp, #48
	.cfi_def_cfa_offset 48
	stp	x20, x19, [sp, #16]             ; 16-byte Folded Spill
	stp	x29, x30, [sp, #32]             ; 16-byte Folded Spill
	add	x29, sp, #32
	.cfi_def_cfa w29, 16
	.cfi_offset w30, -8
	.cfi_offset w29, -16
	.cfi_offset w19, -24
	.cfi_offset w20, -32
Lloh8:
	adrp	x8, __ZNSt3__14cerrE@GOTPAGE
Lloh9:
	ldr	x8, [x8, __ZNSt3__14cerrE@GOTPAGEOFF]
	ldr	x9, [x8]
	ldur	x9, [x9, #-24]
	add	x0, x8, x9
	add	x8, sp, #8
	bl	__ZNKSt3__18ios_base6getlocEv
Ltmp12:
Lloh10:
	adrp	x1, __ZNSt3__15ctypeIcE2idE@GOTPAGE
Lloh11:
	ldr	x1, [x1, __ZNSt3__15ctypeIcE2idE@GOTPAGEOFF]
	add	x0, sp, #8
	bl	__ZNKSt3__16locale9use_facetERNS0_2idE
Ltmp13:
; %bb.1:
	ldr	x8, [x0]
	ldr	x8, [x8, #56]
Ltmp14:
	mov	w1, #10
	blr	x8
Ltmp15:
; %bb.2:
	mov	x19, x0
	add	x0, sp, #8
	bl	__ZNSt3__16localeD1Ev
Lloh12:
	adrp	x20, __ZNSt3__14cerrE@GOTPAGE
Lloh13:
	ldr	x20, [x20, __ZNSt3__14cerrE@GOTPAGEOFF]
	mov	x0, x20
	mov	x1, x19
	bl	__ZNSt3__113basic_ostreamIcNS_11char_traitsIcEEE3putEc
	mov	x0, x20
	bl	__ZNSt3__113basic_ostreamIcNS_11char_traitsIcEEE5flushEv
	ldp	x29, x30, [sp, #32]             ; 16-byte Folded Reload
	ldp	x20, x19, [sp, #16]             ; 16-byte Folded Reload
	add	sp, sp, #48
	ret
LBB4_3:
Ltmp16:
	mov	x19, x0
	add	x0, sp, #8
	bl	__ZNSt3__16localeD1Ev
	mov	x0, x19
	bl	__Unwind_Resume
	.loh AdrpLdrGot	Lloh10, Lloh11
	.loh AdrpLdrGot	Lloh8, Lloh9
	.loh AdrpLdrGot	Lloh12, Lloh13
Lfunc_end3:
	.cfi_endproc
	.section	__TEXT,__gcc_except_tab
	.p2align	2, 0x0
GCC_except_table4:
Lexception3:
	.byte	255                             ; @LPStart Encoding = omit
	.byte	255                             ; @TType Encoding = omit
	.byte	1                               ; Call site Encoding = uleb128
	.uleb128 Lcst_end3-Lcst_begin3
Lcst_begin3:
	.uleb128 Lfunc_begin3-Lfunc_begin3      ; >> Call Site 1 <<
	.uleb128 Ltmp12-Lfunc_begin3            ;   Call between Lfunc_begin3 and Ltmp12
	.byte	0                               ;     has no landing pad
	.byte	0                               ;   On action: cleanup
	.uleb128 Ltmp12-Lfunc_begin3            ; >> Call Site 2 <<
	.uleb128 Ltmp15-Ltmp12                  ;   Call between Ltmp12 and Ltmp15
	.uleb128 Ltmp16-Lfunc_begin3            ;     jumps to Ltmp16
	.byte	0                               ;   On action: cleanup
	.uleb128 Ltmp15-Lfunc_begin3            ; >> Call Site 3 <<
	.uleb128 Lfunc_end3-Ltmp15              ;   Call between Ltmp15 and Lfunc_end3
	.byte	0                               ;     has no landing pad
	.byte	0                               ;   On action: cleanup
Lcst_end3:
	.p2align	2, 0x0
                                        ; -- End function
	.section	__TEXT,__text,regular,pure_instructions
	.private_extern	__ZNKSt3__112basic_stringIcNS_11char_traitsIcEENS_9allocatorIcEEE20__throw_length_errorB8ue170006Ev ; -- Begin function _ZNKSt3__112basic_stringIcNS_11char_traitsIcEENS_9allocatorIcEEE20__throw_length_errorB8ue170006Ev
	.globl	__ZNKSt3__112basic_stringIcNS_11char_traitsIcEENS_9allocatorIcEEE20__throw_length_errorB8ue170006Ev
	.weak_def_can_be_hidden	__ZNKSt3__112basic_stringIcNS_11char_traitsIcEENS_9allocatorIcEEE20__throw_length_errorB8ue170006Ev
	.p2align	2
__ZNKSt3__112basic_stringIcNS_11char_traitsIcEENS_9allocatorIcEEE20__throw_length_errorB8ue170006Ev: ; @_ZNKSt3__112basic_stringIcNS_11char_traitsIcEENS_9allocatorIcEEE20__throw_length_errorB8ue170006Ev
	.cfi_startproc
; %bb.0:
	stp	x29, x30, [sp, #-16]!           ; 16-byte Folded Spill
	.cfi_def_cfa_offset 16
	mov	x29, sp
	.cfi_def_cfa w29, 16
	.cfi_offset w30, -8
	.cfi_offset w29, -16
Lloh14:
	adrp	x0, l_.str.3@PAGE
Lloh15:
	add	x0, x0, l_.str.3@PAGEOFF
	bl	__ZNSt3__120__throw_length_errorB8ue170006EPKc
	.loh AdrpAdd	Lloh14, Lloh15
	.cfi_endproc
                                        ; -- End function
	.private_extern	__ZNSt3__120__throw_length_errorB8ue170006EPKc ; -- Begin function _ZNSt3__120__throw_length_errorB8ue170006EPKc
	.globl	__ZNSt3__120__throw_length_errorB8ue170006EPKc
	.weak_def_can_be_hidden	__ZNSt3__120__throw_length_errorB8ue170006EPKc
	.p2align	2
__ZNSt3__120__throw_length_errorB8ue170006EPKc: ; @_ZNSt3__120__throw_length_errorB8ue170006EPKc
Lfunc_begin4:
	.cfi_startproc
	.cfi_personality 155, ___gxx_personality_v0
	.cfi_lsda 16, Lexception4
; %bb.0:
	stp	x20, x19, [sp, #-32]!           ; 16-byte Folded Spill
	.cfi_def_cfa_offset 32
	stp	x29, x30, [sp, #16]             ; 16-byte Folded Spill
	add	x29, sp, #16
	.cfi_def_cfa w29, 16
	.cfi_offset w30, -8
	.cfi_offset w29, -16
	.cfi_offset w19, -24
	.cfi_offset w20, -32
	mov	x20, x0
	mov	w0, #16
	bl	___cxa_allocate_exception
	mov	x19, x0
Ltmp17:
	mov	x1, x20
	bl	__ZNSt12length_errorC1B8ue170006EPKc
Ltmp18:
; %bb.1:
Lloh16:
	adrp	x1, __ZTISt12length_error@GOTPAGE
Lloh17:
	ldr	x1, [x1, __ZTISt12length_error@GOTPAGEOFF]
Lloh18:
	adrp	x2, __ZNSt12length_errorD1Ev@GOTPAGE
Lloh19:
	ldr	x2, [x2, __ZNSt12length_errorD1Ev@GOTPAGEOFF]
	mov	x0, x19
	bl	___cxa_throw
LBB6_2:
Ltmp19:
	mov	x20, x0
	mov	x0, x19
	bl	___cxa_free_exception
	mov	x0, x20
	bl	__Unwind_Resume
	.loh AdrpLdrGot	Lloh18, Lloh19
	.loh AdrpLdrGot	Lloh16, Lloh17
Lfunc_end4:
	.cfi_endproc
	.section	__TEXT,__gcc_except_tab
	.p2align	2, 0x0
GCC_except_table6:
Lexception4:
	.byte	255                             ; @LPStart Encoding = omit
	.byte	255                             ; @TType Encoding = omit
	.byte	1                               ; Call site Encoding = uleb128
	.uleb128 Lcst_end4-Lcst_begin4
Lcst_begin4:
	.uleb128 Lfunc_begin4-Lfunc_begin4      ; >> Call Site 1 <<
	.uleb128 Ltmp17-Lfunc_begin4            ;   Call between Lfunc_begin4 and Ltmp17
	.byte	0                               ;     has no landing pad
	.byte	0                               ;   On action: cleanup
	.uleb128 Ltmp17-Lfunc_begin4            ; >> Call Site 2 <<
	.uleb128 Ltmp18-Ltmp17                  ;   Call between Ltmp17 and Ltmp18
	.uleb128 Ltmp19-Lfunc_begin4            ;     jumps to Ltmp19
	.byte	0                               ;   On action: cleanup
	.uleb128 Ltmp18-Lfunc_begin4            ; >> Call Site 3 <<
	.uleb128 Lfunc_end4-Ltmp18              ;   Call between Ltmp18 and Lfunc_end4
	.byte	0                               ;     has no landing pad
	.byte	0                               ;   On action: cleanup
Lcst_end4:
	.p2align	2, 0x0
                                        ; -- End function
	.section	__TEXT,__text,regular,pure_instructions
	.private_extern	__ZNSt12length_errorC1B8ue170006EPKc ; -- Begin function _ZNSt12length_errorC1B8ue170006EPKc
	.globl	__ZNSt12length_errorC1B8ue170006EPKc
	.weak_def_can_be_hidden	__ZNSt12length_errorC1B8ue170006EPKc
	.p2align	2
__ZNSt12length_errorC1B8ue170006EPKc:   ; @_ZNSt12length_errorC1B8ue170006EPKc
	.cfi_startproc
; %bb.0:
	stp	x29, x30, [sp, #-16]!           ; 16-byte Folded Spill
	.cfi_def_cfa_offset 16
	mov	x29, sp
	.cfi_def_cfa w29, 16
	.cfi_offset w30, -8
	.cfi_offset w29, -16
	bl	__ZNSt11logic_errorC2EPKc
Lloh20:
	adrp	x8, __ZTVSt12length_error@GOTPAGE
Lloh21:
	ldr	x8, [x8, __ZTVSt12length_error@GOTPAGEOFF]
	add	x8, x8, #16
	str	x8, [x0]
	ldp	x29, x30, [sp], #16             ; 16-byte Folded Reload
	ret
	.loh AdrpLdrGot	Lloh20, Lloh21
	.cfi_endproc
                                        ; -- End function
	.section	__TEXT,__StaticInit,regular,pure_instructions
	.p2align	2                               ; -- Begin function _GLOBAL__sub_I_24_7_23_v2.cpp
__GLOBAL__sub_I_24_7_23_v2.cpp:         ; @_GLOBAL__sub_I_24_7_23_v2.cpp
	.cfi_startproc
; %bb.0:
Lloh22:
	adrp	x8, __ZNSt3__13cinE@GOTPAGE
Lloh23:
	ldr	x8, [x8, __ZNSt3__13cinE@GOTPAGEOFF]
	ldr	x9, [x8]
	ldur	x9, [x9, #-24]
	add	x8, x8, x9
	str	xzr, [x8, #136]
	mov	w0, #0
	b	__ZNSt3__18ios_base15sync_with_stdioEb
	.loh AdrpLdrGot	Lloh22, Lloh23
	.cfi_endproc
                                        ; -- End function
	.section	__TEXT,__cstring,cstring_literals
l_.str:                                 ; @.str
	.asciz	"'"

l_.str.1:                               ; @.str.1
	.asciz	"true"

l_.str.2:                               ; @.str.2
	.asciz	"false"

l_.str.3:                               ; @.str.3
	.asciz	"basic_string"

	.section	__DATA,__mod_init_func,mod_init_funcs
	.p2align	3, 0x0
	.quad	__GLOBAL__sub_I_24_7_23_v2.cpp
.subsections_via_symbols
